; Function Attrs: nounwind uwtable
define internal range(i32 0, 23) i32 @thread_tcache_enabled_ctl(ptr noundef %0, ptr readnone captures(none) %1, i64 %2, ptr noundef writeonly captures(address_is_null) %3, ptr noundef captures(address_is_null) %4, ptr noundef readonly captures(address_is_null) %5, i64 noundef %6) #0 {
  %8 = alloca i8, align 1
  call void @llvm.lifetime.start.p0(i64 1, ptr nonnull %8)
  %.val = load i8, ptr %0, align 1, !tbaa !146, !range !48, !noundef !49
  store i8 %.val, ptr %8, align 1, !tbaa !146
  %.not = icmp eq ptr %5, null
  br i1 %.not, label %13, label %9

9:                                                ; preds = %7
  %.not24 = icmp eq i64 %6, 1
  br i1 %.not24, label %10, label %22

10:                                               ; preds = %9
  %11 = load i8, ptr %5, align 1, !tbaa !146, !range !48, !noundef !49
  %12 = trunc nuw i8 %11 to i1
  tail call void @je_tcache_enabled_set(ptr noundef nonnull %0, i1 noundef zeroext %12) #15
  br label %13

13:                                               ; preds = %7, %10
  %14 = icmp ne ptr %3, null
  %15 = icmp ne ptr %4, null
  %or.cond = and i1 %14, %15
  br i1 %or.cond, label %16, label %22

16:                                               ; preds = %13
  %17 = load i64, ptr %4, align 8, !tbaa !4
  switch i64 %17, label %19 [
    i64 1, label %21
    i64 0, label %18
  ]

18:                                               ; preds = %16
  br label %19

19:                                               ; preds = %16, %18
  %20 = phi i64 [ 0, %18 ], [ 1, %16 ]
  call void @llvm.memcpy.p0.p0.i64(ptr nonnull align 1 %3, ptr nonnull align 1 %8, i64 %20, i1 false)
  store i64 %20, ptr %4, align 8, !tbaa !4
  br label %22

21:                                               ; preds = %16
  store i8 %.val, ptr %3, align 1, !tbaa !146
  br label %22

22:                                               ; preds = %19, %9, %21, %13
  %.019 = phi i32 [ 22, %19 ], [ 22, %9 ], [ 0, %21 ], [ 0, %13 ]
  call void @llvm.lifetime.end.p0(i64 1, ptr nonnull %8)
  ret i32 %.019
}